Certificate:
    Data:
        Version: 3 (0x2)
        Serial Number: 1 (0x1)
        Signature Algorithm: ecdsa-with-SHA256
        Issuer: C=IT, ST=Salerno, L=Fisciano, O=SHAnnon, CN=www.shannon.com/emailAddress=shannon@info.it
        Validity
            Not Before: Aug  3 08:30:22 2023 GMT
            Not After : Aug  2 08:30:22 2024 GMT
        Subject: C=IT, ST=Napoli, L=Napoli, O=Sala Bingo Mister Jocker, CN=www.salabingomj.it/emailAddress=salabingomj@info.it
        Subject Public Key Info:
            Public Key Algorithm: id-ecPublicKey
                Public-Key: (256 bit)
                pub:
                    04:4f:6c:99:77:11:97:8f:42:1f:d4:70:5d:f0:5d:
                    d0:b0:70:75:01:43:5c:67:6a:ac:4b:39:2b:70:b8:
                    76:78:57:ab:ef:18:44:f5:90:48:93:57:80:28:a7:
                    05:ab:ca:d4:dd:f3:2a:0f:64:1f:1e:bd:e5:a1:cd:
                    bc:9a:e7:b7:5e
                ASN1 OID: prime256v1
                NIST CURVE: P-256
        X509v3 extensions:
            X509v3 Basic Constraints: 
                CA:FALSE
            X509v3 Subject Key Identifier: 
                B6:73:8A:B3:BE:C6:48:FD:2A:04:48:2F:C7:A9:31:0D:F9:E2:AD:13
            X509v3 Authority Key Identifier: 
                ED:09:DC:CB:FA:32:CF:AB:E8:FA:BC:1F:CE:76:86:32:17:4E:74:02
    Signature Algorithm: ecdsa-with-SHA256
    Signature Value:
        30:44:02:20:29:7d:c1:b5:90:fe:4d:ec:79:31:07:0e:b6:50:
        1f:b4:f8:8c:56:08:cf:c1:2b:7c:e2:85:20:f1:88:82:d7:7b:
        02:20:63:82:98:32:a4:6d:39:13:a1:35:dd:d2:d5:1e:fe:06:
        e4:9a:07:d7:e0:78:89:5b:d8:b3:6b:c7:e8:2c:61:73
-----BEGIN CERTIFICATE-----
MIICTTCCAfSgAwIBAgIBATAKBggqhkjOPQQDAjB+MQswCQYDVQQGEwJJVDEQMA4G
A1UECAwHU2FsZXJubzERMA8GA1UEBwwIRmlzY2lhbm8xEDAOBgNVBAoMB1NIQW5u
b24xGDAWBgNVBAMMD3d3dy5zaGFubm9uLmNvbTEeMBwGCSqGSIb3DQEJARYPc2hh
bm5vbkBpbmZvLml0MB4XDTIzMDgwMzA4MzAyMloXDTI0MDgwMjA4MzAyMlowgZMx
CzAJBgNVBAYTAklUMQ8wDQYDVQQIDAZOYXBvbGkxDzANBgNVBAcMBk5hcG9saTEh
MB8GA1UECgwYU2FsYSBCaW5nbyBNaXN0ZXIgSm9ja2VyMRswGQYDVQQDDBJ3d3cu
c2FsYWJpbmdvbWouaXQxIjAgBgkqhkiG9w0BCQEWE3NhbGFiaW5nb21qQGluZm8u
aXQwWTATBgcqhkjOPQIBBggqhkjOPQMBBwNCAARPbJl3EZePQh/UcF3wXdCwcHUB
Q1xnaqxLOStwuHZ4V6vvGET1kEiTV4AopwWrytTd8yoPZB8eveWhzbya57deo00w
SzAJBgNVHRMEAjAAMB0GA1UdDgQWBBS2c4qzvsZI/SoESC/HqTEN+eKtEzAfBgNV
HSMEGDAWgBTtCdzL+jLPq+j6vB/OdoYyF050AjAKBggqhkjOPQQDAgNHADBEAiAp
fcG1kP5N7HkxBw62UB+0+IxWCM/BK3zihSDxiILXewIgY4KYMqRtOROhNd3S1R7+
BuSaB9fgeIlb2LNrx+gsYXM=
-----END CERTIFICATE-----
