Certificate:
    Data:
        Version: 3 (0x2)
        Serial Number: 0 (0x0)
        Signature Algorithm: ecdsa-with-SHA256
        Issuer: C=IT, ST=Salerno, L=Fisciano, O=SHAnnon, CN=www.shannon.com/emailAddress=shannon@info.it
        Validity
            Not Before: Jun 12 19:44:15 2023 GMT
            Not After : Jun 11 19:44:15 2024 GMT
        Subject: C=IT, ST=Roma, L=Roma, O=Ministero della Salute, CN=www.salute.gov.it/emailAddress=ministerodellasalute@sanita.it
        Subject Public Key Info:
            Public Key Algorithm: id-ecPublicKey
                Public-Key: (256 bit)
                pub:
                    04:f1:42:da:62:02:e1:75:bf:17:85:8a:15:14:3b:
                    3d:93:1a:a6:2e:f9:38:ac:4d:21:b4:b5:97:a3:1c:
                    c0:96:f6:a3:1f:17:28:9d:2c:d6:69:61:36:07:76:
                    13:b3:f0:ad:82:e2:ca:77:9c:80:ff:35:25:13:48:
                    06:85:d5:c4:5b
                ASN1 OID: prime256v1
                NIST CURVE: P-256
        X509v3 extensions:
            X509v3 Basic Constraints: 
                CA:FALSE
            X509v3 Subject Key Identifier: 
                42:86:4E:FA:AE:3F:94:D3:3A:61:46:AA:B9:64:06:36:75:95:1F:F4
            X509v3 Authority Key Identifier: 
                ED:09:DC:CB:FA:32:CF:AB:E8:FA:BC:1F:CE:76:86:32:17:4E:74:02
    Signature Algorithm: ecdsa-with-SHA256
    Signature Value:
        30:45:02:20:4e:59:03:4b:77:95:ac:a3:0e:90:73:7f:84:f3:
        58:6e:c3:f3:bd:a8:32:d5:32:d1:6d:cf:e7:ba:f6:e5:f9:47:
        02:21:00:b2:c5:98:e7:b4:4c:a9:8a:36:d8:1c:e1:55:b5:93:
        06:44:79:eb:2b:53:7a:b6:40:77:26:7e:a1:97:78:30:36
-----BEGIN CERTIFICATE-----
MIICUjCCAfigAwIBAgIBADAKBggqhkjOPQQDAjB+MQswCQYDVQQGEwJJVDEQMA4G
A1UECAwHU2FsZXJubzERMA8GA1UEBwwIRmlzY2lhbm8xEDAOBgNVBAoMB1NIQW5u
b24xGDAWBgNVBAMMD3d3dy5zaGFubm9uLmNvbTEeMBwGCSqGSIb3DQEJARYPc2hh
bm5vbkBpbmZvLml0MB4XDTIzMDYxMjE5NDQxNVoXDTI0MDYxMTE5NDQxNVowgZcx
CzAJBgNVBAYTAklUMQ0wCwYDVQQIDARSb21hMQ0wCwYDVQQHDARSb21hMR8wHQYD
VQQKDBZNaW5pc3Rlcm8gZGVsbGEgU2FsdXRlMRowGAYDVQQDDBF3d3cuc2FsdXRl
Lmdvdi5pdDEtMCsGCSqGSIb3DQEJARYebWluaXN0ZXJvZGVsbGFzYWx1dGVAc2Fu
aXRhLml0MFkwEwYHKoZIzj0CAQYIKoZIzj0DAQcDQgAE8ULaYgLhdb8XhYoVFDs9
kxqmLvk4rE0htLWXoxzAlvajHxconSzWaWE2B3YTs/CtguLKd5yA/zUlE0gGhdXE
W6NNMEswCQYDVR0TBAIwADAdBgNVHQ4EFgQUQoZO+q4/lNM6YUaquWQGNnWVH/Qw
HwYDVR0jBBgwFoAU7Qncy/oyz6vo+rwfznaGMhdOdAIwCgYIKoZIzj0EAwIDSAAw
RQIgTlkDS3eVrKMOkHN/hPNYbsPzvagy1TLRbc/nuvbl+UcCIQCyxZjntEypijbY
HOFVtZMGRHnrK1N6tkB3Jn6hl3gwNg==
-----END CERTIFICATE-----
